(ikeras_frcnn.config
Config
p0
(dp1
S'use_vertical_flips'
p2
I00
sS'verbose'
p3
I01
sS'classifier_regr_std'
p4
(lp5
F8.0
aF8.0
aF4.0
aF4.0
asS'classifier_min_overlap'
p6
F0.1
sS'rot_90'
p7
I00
sS'class_mapping'
p8
(dp9
S'bg'
p10
I1
sS'wheat'
p11
I0
ssS'use_horizontal_flips'
p12
I00
sS'rpn_max_overlap'
p13
F0.7
sS'network'
p14
S'resnet50'
p15
sS'img_channel_mean'
p16
(lp17
F103.939
aF116.779
aF123.68
asS'balanced_classes'
p18
I00
sS'anchor_box_ratios'
p19
(lp20
(lp21
I1
aI1
aa(lp22
F0.7071067811865475
aF1.414213562373095
aa(lp23
F1.414213562373095
aF0.7071067811865475
aasS'img_scaling_factor'
p24
F1.0
sS'rpn_stride'
p25
I16
sS'num_rois'
p26
I32
sS'base_net_weights'
p27
S'resnet50_weights_tf_dim_ordering_tf_kernels.h5'
p28
sS'anchor_box_scales'
p29
(lp30
I128
aI256
aI512
asS'rpn_min_overlap'
p31
F0.3
sS'model_path'
p32
S'./model_frcnn.hdf5'
p33
sS'classifier_max_overlap'
p34
F0.5
sS'std_scaling'
p35
F4.0
sS'im_size'
p36
I600
sb.